target datalayout = "e-m:e-p270:32:32-p271:32:32-p272:64:64-i64:64-i128:128-f80:128-n8:16:32:64-S128"
target triple = "x86_64-pc-linux-gnu"

%struct.dirent = type { i64, i64, i16, i8, [256 x i8] }

@pg_TZDIR.done_tzdir = internal global i8 0, align 1
@pg_TZDIR.tzdir = internal global [1024 x i8] zeroinitializer, align 16
@my_exec_path = external global [0 x i8], align 1
@.str.10 = private unnamed_addr constant [10 x i8] c"/timezone\00", align 1

; Function Attrs: nounwind uwtable
define internal zeroext i1 @scan_directory_ci(ptr noundef %0, ptr noundef %1, i32 noundef %2, ptr noundef %3, i32 noundef %4) #0 {
  %6 = alloca ptr, align 8
  %7 = alloca ptr, align 8
  %8 = alloca i32, align 4
  %9 = alloca ptr, align 8
  %10 = alloca i32, align 4
  %11 = alloca i8, align 1
  %12 = alloca ptr, align 8
  %13 = alloca ptr, align 8
  store ptr %0, ptr %6, align 8
  store ptr %1, ptr %7, align 8
  store i32 %2, ptr %8, align 4
  store ptr %3, ptr %9, align 8
  store i32 %4, ptr %10, align 4
  call void @llvm.lifetime.start.p0(i64 1, ptr %11) #7
  store i8 0, ptr %11, align 1
  call void @llvm.lifetime.start.p0(i64 8, ptr %12) #7
  call void @llvm.lifetime.start.p0(i64 8, ptr %13) #7
  %14 = load ptr, ptr %6, align 8
  %15 = call ptr @AllocateDir(ptr noundef %14)
  store ptr %15, ptr %12, align 8
  br label %16

16:                                               ; preds = %54, %28, %5
  %17 = load ptr, ptr %12, align 8
  %18 = load ptr, ptr %6, align 8
  %19 = call ptr @ReadDirExtended(ptr noundef %17, ptr noundef %18, i32 noundef 15)
  store ptr %19, ptr %13, align 8
  %20 = icmp ne ptr %19, null
  br i1 %20, label %21, label %55

21:                                               ; preds = %16
  %22 = load ptr, ptr %13, align 8
  %23 = getelementptr inbounds nuw %struct.dirent, ptr %22, i32 0, i32 4
  %24 = getelementptr inbounds [256 x i8], ptr %23, i64 0, i64 0
  %25 = load i8, ptr %24, align 1
  %26 = sext i8 %25 to i32
  %27 = icmp eq i32 %26, 46
  br i1 %27, label %28, label %29

28:                                               ; preds = %21
  br label %16, !llvm.loop !6

29:                                               ; preds = %21
  %30 = load ptr, ptr %13, align 8
  %31 = getelementptr inbounds nuw %struct.dirent, ptr %30, i32 0, i32 4
  %32 = getelementptr inbounds [256 x i8], ptr %31, i64 0, i64 0
  %33 = call i64 @strlen(ptr noundef %32) #8
  %34 = load i32, ptr %8, align 4
  %35 = sext i32 %34 to i64
  %36 = icmp eq i64 %33, %35
  br i1 %36, label %37, label %54

37:                                               ; preds = %29
  %38 = load ptr, ptr %13, align 8
  %39 = getelementptr inbounds nuw %struct.dirent, ptr %38, i32 0, i32 4
  %40 = getelementptr inbounds [256 x i8], ptr %39, i64 0, i64 0
  %41 = load ptr, ptr %7, align 8
  %42 = load i32, ptr %8, align 4
  %43 = sext i32 %42 to i64
  %44 = call i32 @pg_strncasecmp(ptr noundef %40, ptr noundef %41, i64 noundef %43)
  %45 = icmp eq i32 %44, 0
  br i1 %45, label %46, label %54

46:                                               ; preds = %37
  %47 = load ptr, ptr %9, align 8
  %48 = load ptr, ptr %13, align 8
  %49 = getelementptr inbounds nuw %struct.dirent, ptr %48, i32 0, i32 4
  %50 = getelementptr inbounds [256 x i8], ptr %49, i64 0, i64 0
  %51 = load i32, ptr %10, align 4
  %52 = sext i32 %51 to i64
  %53 = call i64 @strlcpy(ptr noundef %47, ptr noundef %50, i64 noundef %52)
  store i8 1, ptr %11, align 1
  br label %55

54:                                               ; preds = %37, %29
  br label %16, !llvm.loop !6

55:                                               ; preds = %46, %16
  %56 = load ptr, ptr %12, align 8
  %57 = call i32 @FreeDir(ptr noundef %56)
  %58 = load i8, ptr %11, align 1, !range !4, !noundef !5
  %59 = trunc i8 %58 to i1
  call void @llvm.lifetime.end.p0(i64 8, ptr %13) #7
  call void @llvm.lifetime.end.p0(i64 8, ptr %12) #7
  call void @llvm.lifetime.end.p0(i64 1, ptr %11) #7
  ret i1 %59
}

; Function Attrs: nounwind uwtable
define internal ptr @pg_TZDIR() #0 {
  %1 = alloca ptr, align 8
  %2 = load i8, ptr @pg_TZDIR.done_tzdir, align 1, !range !4, !noundef !5
  %3 = trunc i8 %2 to i1
  br i1 %3, label %4, label %5

4:                                                ; preds = %0
  store ptr @pg_TZDIR.tzdir, ptr %1, align 8
  br label %11

5:                                                ; preds = %0
  call void @get_share_path(ptr noundef @my_exec_path, ptr noundef @pg_TZDIR.tzdir)
  %6 = call i64 @strlen(ptr noundef @pg_TZDIR.tzdir) #8
  %7 = getelementptr inbounds nuw i8, ptr @pg_TZDIR.tzdir, i64 %6
  %8 = call i64 @strlen(ptr noundef @pg_TZDIR.tzdir) #8
  %9 = sub i64 1024, %8
  %10 = call i64 @strlcpy(ptr noundef %7, ptr noundef @.str.10, i64 noundef %9)
  store i8 1, ptr @pg_TZDIR.done_tzdir, align 1
  store ptr @pg_TZDIR.tzdir, ptr %1, align 8
  br label %11

11:                                               ; preds = %5, %4
  %12 = load ptr, ptr %1, align 8
  ret ptr %12
}

; Function Attrs: nounwind uwtable
define dso_local i32 @pg_open_tzfile(ptr noundef %0, ptr noundef %1) #0 {
  %3 = alloca i32, align 4
  %4 = alloca ptr, align 8
  %5 = alloca ptr, align 8
  %6 = alloca ptr, align 8
  %7 = alloca [1024 x i8], align 16
  %8 = alloca i32, align 4
  %9 = alloca i32, align 4
  %10 = alloca i32, align 4
  %11 = alloca i32, align 4
  %12 = alloca ptr, align 8
  %13 = alloca i32, align 4
  store ptr %0, ptr %4, align 8
  store ptr %1, ptr %5, align 8
  call void @llvm.lifetime.start.p0(i64 8, ptr %6) #7
  call void @llvm.lifetime.start.p0(i64 1024, ptr %7) #7
  call void @llvm.lifetime.start.p0(i64 4, ptr %8) #7
  call void @llvm.lifetime.start.p0(i64 4, ptr %9) #7
  %14 = getelementptr inbounds [1024 x i8], ptr %7, i64 0, i64 0
  %15 = call ptr @pg_TZDIR()
  %16 = call i64 @strlcpy(ptr noundef %14, ptr noundef %15, i64 noundef 1024)
  %17 = getelementptr inbounds [1024 x i8], ptr %7, i64 0, i64 0
  %18 = call i64 @strlen(ptr noundef %17) #8
  %19 = trunc i64 %18 to i32
  store i32 %19, ptr %8, align 4
  store i32 %19, ptr %9, align 4
  %20 = load i32, ptr %8, align 4
  %21 = add i32 %20, 1
  %22 = sext i32 %21 to i64
  %23 = load ptr, ptr %4, align 8
  %24 = call i64 @strlen(ptr noundef %23) #8
  %25 = add i64 %22, %24
  %26 = icmp uge i64 %25, 1024
  br i1 %26, label %27, label %28

27:                                               ; preds = %2
  store i32 -1, ptr %3, align 4
  store i32 1, ptr %10, align 4
  br label %125

28:                                               ; preds = %2
  %29 = load ptr, ptr %5, align 8
  %30 = icmp eq ptr %29, null
  br i1 %30, label %31, label %55

31:                                               ; preds = %28
  call void @llvm.lifetime.start.p0(i64 4, ptr %11) #7
  %32 = load i32, ptr %8, align 4
  %33 = sext i32 %32 to i64
  %34 = getelementptr inbounds [1024 x i8], ptr %7, i64 0, i64 %33
  store i8 47, ptr %34, align 1
  %35 = getelementptr inbounds [1024 x i8], ptr %7, i64 0, i64 0
  %36 = load i32, ptr %8, align 4
  %37 = sext i32 %36 to i64
  %38 = getelementptr inbounds i8, ptr %35, i64 %37
  %39 = getelementptr inbounds i8, ptr %38, i64 1
  %40 = load ptr, ptr %4, align 8
  %41 = call ptr @strcpy(ptr noundef %39, ptr noundef %40) #7
  %42 = getelementptr inbounds [1024 x i8], ptr %7, i64 0, i64 0
  %43 = call i32 (ptr, i32, ...) @open(ptr noundef %42, i32 noundef 0, i32 noundef 0)
  store i32 %43, ptr %11, align 4
  %44 = load i32, ptr %11, align 4
  %45 = icmp sge i32 %44, 0
  br i1 %45, label %46, label %48

46:                                               ; preds = %31
  %47 = load i32, ptr %11, align 4
  store i32 %47, ptr %3, align 4
  store i32 1, ptr %10, align 4
  br label %52

48:                                               ; preds = %31
  %49 = load i32, ptr %8, align 4
  %50 = sext i32 %49 to i64
  %51 = getelementptr inbounds [1024 x i8], ptr %7, i64 0, i64 %50
  store i8 0, ptr %51, align 1
  store i32 0, ptr %10, align 4
  br label %52

52:                                               ; preds = %48, %46
  call void @llvm.lifetime.end.p0(i64 4, ptr %11) #7
  %53 = load i32, ptr %10, align 4
  switch i32 %53, label %125 [
    i32 0, label %54
  ]

54:                                               ; preds = %52
  br label %55

55:                                               ; preds = %54, %28
  %56 = load ptr, ptr %4, align 8
  store ptr %56, ptr %6, align 8
  br label %57

57:                                               ; preds = %110, %55
  call void @llvm.lifetime.start.p0(i64 8, ptr %12) #7
  call void @llvm.lifetime.start.p0(i64 4, ptr %13) #7
  %58 = load ptr, ptr %6, align 8
  %59 = call ptr @strchr(ptr noundef %58, i32 noundef 47) #8
  store ptr %59, ptr %12, align 8
  %60 = load ptr, ptr %12, align 8
  %61 = icmp ne ptr %60, null
  br i1 %61, label %62, label %69

62:                                               ; preds = %57
  %63 = load ptr, ptr %12, align 8
  %64 = load ptr, ptr %6, align 8
  %65 = ptrtoint ptr %63 to i64
  %66 = ptrtoint ptr %64 to i64
  %67 = sub i64 %65, %66
  %68 = trunc i64 %67 to i32
  store i32 %68, ptr %13, align 4
  br label %73

69:                                               ; preds = %57
  %70 = load ptr, ptr %6, align 8
  %71 = call i64 @strlen(ptr noundef %70) #8
  %72 = trunc i64 %71 to i32
  store i32 %72, ptr %13, align 4
  br label %73

73:                                               ; preds = %69, %62
  %74 = getelementptr inbounds [1024 x i8], ptr %7, i64 0, i64 0
  %75 = load ptr, ptr %6, align 8
  %76 = load i32, ptr %13, align 4
  %77 = getelementptr inbounds [1024 x i8], ptr %7, i64 0, i64 0
  %78 = load i32, ptr %8, align 4
  %79 = sext i32 %78 to i64
  %80 = getelementptr inbounds i8, ptr %77, i64 %79
  %81 = getelementptr inbounds i8, ptr %80, i64 1
  %82 = load i32, ptr %8, align 4
  %83 = sub i32 1024, %82
  %84 = sub i32 %83, 1
  %85 = call zeroext i1 @scan_directory_ci(ptr noundef %74, ptr noundef %75, i32 noundef %76, ptr noundef %81, i32 noundef %84)
  br i1 %85, label %87, label %86

86:                                               ; preds = %73
  store i32 -1, ptr %3, align 4
  store i32 1, ptr %10, align 4
  br label %108

87:                                               ; preds = %73
  %88 = load i32, ptr %8, align 4
  %89 = add i32 %88, 1
  store i32 %89, ptr %8, align 4
  %90 = sext i32 %88 to i64
  %91 = getelementptr inbounds [1024 x i8], ptr %7, i64 0, i64 %90
  store i8 47, ptr %91, align 1
  %92 = getelementptr inbounds [1024 x i8], ptr %7, i64 0, i64 0
  %93 = load i32, ptr %8, align 4
  %94 = sext i32 %93 to i64
  %95 = getelementptr inbounds i8, ptr %92, i64 %94
  %96 = call i64 @strlen(ptr noundef %95) #8
  %97 = load i32, ptr %8, align 4
  %98 = sext i32 %97 to i64
  %99 = add i64 %98, %96
  %100 = trunc i64 %99 to i32
  store i32 %100, ptr %8, align 4
  %101 = load ptr, ptr %12, align 8
  %102 = icmp ne ptr %101, null
  br i1 %102, label %103, label %106

103:                                              ; preds = %87
  %104 = load ptr, ptr %12, align 8
  %105 = getelementptr inbounds i8, ptr %104, i64 1
  store ptr %105, ptr %6, align 8
  br label %107

106:                                              ; preds = %87
  store i32 2, ptr %10, align 4
  br label %108

107:                                              ; preds = %103
  store i32 0, ptr %10, align 4
  br label %108

108:                                              ; preds = %107, %106, %86
  call void @llvm.lifetime.end.p0(i64 4, ptr %13) #7
  call void @llvm.lifetime.end.p0(i64 8, ptr %12) #7
  %109 = load i32, ptr %10, align 4
  switch i32 %109, label %125 [
    i32 0, label %110
    i32 2, label %111
  ]

110:                                              ; preds = %108
  br label %57

111:                                              ; preds = %108
  %112 = load ptr, ptr %5, align 8
  %113 = icmp ne ptr %112, null
  br i1 %113, label %114, label %122

114:                                              ; preds = %111
  %115 = load ptr, ptr %5, align 8
  %116 = getelementptr inbounds [1024 x i8], ptr %7, i64 0, i64 0
  %117 = load i32, ptr %9, align 4
  %118 = sext i32 %117 to i64
  %119 = getelementptr inbounds i8, ptr %116, i64 %118
  %120 = getelementptr inbounds i8, ptr %119, i64 1
  %121 = call i64 @strlcpy(ptr noundef %115, ptr noundef %120, i64 noundef 256)
  br label %122

122:                                              ; preds = %114, %111
  %123 = getelementptr inbounds [1024 x i8], ptr %7, i64 0, i64 0
  %124 = call i32 (ptr, i32, ...) @open(ptr noundef %123, i32 noundef 0, i32 noundef 0)
  store i32 %124, ptr %3, align 4
  store i32 1, ptr %10, align 4
  br label %125

125:                                              ; preds = %122, %108, %52, %27
  call void @llvm.lifetime.end.p0(i64 4, ptr %9) #7
  call void @llvm.lifetime.end.p0(i64 4, ptr %8) #7
  call void @llvm.lifetime.end.p0(i64 1024, ptr %7) #7
  call void @llvm.lifetime.end.p0(i64 8, ptr %6) #7
  %126 = load i32, ptr %3, align 4
  ret i32 %126
}