; Function Attrs: nounwind uwtable
define dso_local noundef i32 @pg_open_tzfile(ptr noundef %0, ptr noundef %1) local_unnamed_addr #0 {
  %3 = alloca [1024 x i8], align 16
  call void @llvm.lifetime.start.p0(i64 1024, ptr nonnull %3) #10
  %.b1.i = load i1, ptr @pg_TZDIR.done_tzdir, align 1
  br i1 %.b1.i, label %pg_TZDIR.exit, label %4

4:                                                ; preds = %2
  tail call void @get_share_path(ptr noundef nonnull @my_exec_path, ptr noundef nonnull @pg_TZDIR.tzdir) #10
  %5 = tail call i64 @strlen(ptr noundef nonnull dereferenceable(1) @pg_TZDIR.tzdir) #11
  %6 = getelementptr inbounds nuw i8, ptr @pg_TZDIR.tzdir, i64 %5
  %7 = sub i64 1024, %5
  %8 = tail call i64 @strlcpy(ptr noundef nonnull %6, ptr noundef nonnull dereferenceable(1) @.str.10, i64 noundef %7) #10
  store i1 true, ptr @pg_TZDIR.done_tzdir, align 1
  br label %pg_TZDIR.exit

pg_TZDIR.exit:                                    ; preds = %2, %4
  %9 = call i64 @strlcpy(ptr noundef nonnull dereferenceable(1) %3, ptr noundef nonnull dereferenceable(1) @pg_TZDIR.tzdir, i64 noundef 1024) #10
  %10 = call i64 @strlen(ptr noundef nonnull dereferenceable(1) %3) #11
  %11 = trunc i64 %10 to i32
  %12 = shl i64 %10, 32
  %sext = add i64 %12, 4294967296
  %13 = ashr exact i64 %sext, 32
  %14 = call i64 @strlen(ptr noundef nonnull dereferenceable(1) %0) #11
  %15 = add i64 %13, %14
  %16 = icmp ugt i64 %15, 1023
  br i1 %16, label %.critedge, label %17

17:                                               ; preds = %pg_TZDIR.exit
  %18 = icmp eq ptr %1, null
  br i1 %18, label %19, label %27

19:                                               ; preds = %17
  %20 = ashr exact i64 %12, 32
  %21 = getelementptr inbounds [1024 x i8], ptr %3, i64 0, i64 %20
  store i8 47, ptr %21, align 1
  %22 = getelementptr inbounds nuw i8, ptr %21, i64 1
  %23 = call ptr @strcpy(ptr noundef nonnull dereferenceable(1) %22, ptr noundef nonnull dereferenceable(1) %0) #10
  %24 = call i32 (ptr, i32, ...) @open(ptr noundef nonnull %3, i32 noundef 0, i32 noundef 0) #10
  %25 = icmp slt i32 %24, 0
  br i1 %25, label %26, label %.critedge

26:                                               ; preds = %19
  store i8 0, ptr %21, align 1
  br label %27

27:                                               ; preds = %26, %17
  %invariant.gep = getelementptr inbounds nuw i8, ptr %3, i64 1
  br label %28

28:                                               ; preds = %55, %27
  %.034 = phi i32 [ %11, %27 ], [ %65, %55 ]
  %.030 = phi ptr [ %0, %27 ], [ %66, %55 ]
  %29 = call ptr @strchr(ptr noundef nonnull dereferenceable(1) %.030, i32 noundef 47) #11
  %.not = icmp eq ptr %29, null
  br i1 %.not, label %34, label %30

30:                                               ; preds = %28
  %31 = ptrtoint ptr %29 to i64
  %32 = ptrtoint ptr %.030 to i64
  %33 = sub i64 %31, %32
  br label %36

34:                                               ; preds = %28
  %35 = call i64 @strlen(ptr noundef nonnull dereferenceable(1) %.030) #11
  br label %36

36:                                               ; preds = %34, %30
  %.0.in = phi i64 [ %33, %30 ], [ %35, %34 ]
  %37 = sext i32 %.034 to i64
  %gep = getelementptr i8, ptr %invariant.gep, i64 %37
  %38 = sub i32 1023, %.034
  %39 = call ptr @AllocateDir(ptr noundef nonnull %3) #10
  %40 = call ptr @ReadDirExtended(ptr noundef %39, ptr noundef nonnull %3, i32 noundef 15) #10
  %.not17.not.i = icmp eq ptr %40, null
  br i1 %.not17.not.i, label %.thread, label %.lr.ph.i

.lr.ph.i:                                         ; preds = %36
  %sext53 = shl i64 %.0.in, 32
  %41 = ashr exact i64 %sext53, 32
  br label %42

42:                                               ; preds = %.backedge.i, %.lr.ph.i
  %43 = phi ptr [ %40, %.lr.ph.i ], [ %53, %.backedge.i ]
  %44 = getelementptr inbounds nuw i8, ptr %43, i64 19
  %45 = load i8, ptr %44, align 1
  %46 = icmp eq i8 %45, 46
  br i1 %46, label %.backedge.i, label %47

47:                                               ; preds = %42
  %48 = call i64 @strlen(ptr noundef nonnull dereferenceable(1) %44) #11
  %49 = icmp eq i64 %48, %41
  br i1 %49, label %50, label %.backedge.i

50:                                               ; preds = %47
  %51 = call i32 @pg_strncasecmp(ptr noundef nonnull %44, ptr noundef nonnull %.030, i64 noundef %41) #10
  %52 = icmp eq i32 %51, 0
  br i1 %52, label %55, label %.backedge.i

.backedge.i:                                      ; preds = %50, %47, %42
  %53 = call ptr @ReadDirExtended(ptr noundef %39, ptr noundef nonnull %3, i32 noundef 15) #10
  %.not.not.i = icmp eq ptr %53, null
  br i1 %.not.not.i, label %.thread, label %42, !llvm.loop !4

.thread:                                          ; preds = %36, %.backedge.i
  %54 = call i32 @FreeDir(ptr noundef %39) #10
  br label %.critedge

55:                                               ; preds = %50
  %56 = sext i32 %38 to i64
  %57 = call i64 @strlcpy(ptr noundef nonnull %gep, ptr noundef nonnull dereferenceable(1) %44, i64 noundef %56) #10
  %58 = call i32 @FreeDir(ptr noundef %39) #10
  %59 = add i32 %.034, 1
  %60 = getelementptr inbounds [1024 x i8], ptr %3, i64 0, i64 %37
  store i8 47, ptr %60, align 1
  %61 = sext i32 %59 to i64
  %62 = getelementptr inbounds i8, ptr %3, i64 %61
  %63 = call i64 @strlen(ptr noundef nonnull dereferenceable(1) %62) #11
  %64 = trunc i64 %63 to i32
  %65 = add i32 %59, %64
  %66 = getelementptr inbounds nuw i8, ptr %29, i64 1
  br i1 %.not, label %67, label %28

67:                                               ; preds = %55
  br i1 %18, label %73, label %68

68:                                               ; preds = %67
  %69 = ashr exact i64 %12, 32
  %70 = getelementptr inbounds i8, ptr %3, i64 %69
  %71 = getelementptr inbounds nuw i8, ptr %70, i64 1
  %72 = call i64 @strlcpy(ptr noundef nonnull dereferenceable(1) %1, ptr noundef nonnull dereferenceable(1) %71, i64 noundef 256) #10
  br label %73

73:                                               ; preds = %68, %67
  %74 = call i32 (ptr, i32, ...) @open(ptr noundef nonnull %3, i32 noundef 0, i32 noundef 0) #10
  br label %.critedge

.critedge:                                        ; preds = %.thread, %19, %pg_TZDIR.exit, %73
  %.029 = phi i32 [ %74, %73 ], [ -1, %pg_TZDIR.exit ], [ %24, %19 ], [ -1, %.thread ]
  call void @llvm.lifetime.end.p0(i64 1024, ptr nonnull %3) #10
  ret i32 %.029
}